; Function Attrs: nounwind uwtable
define hidden noundef zeroext i1 @je_sec_init(ptr noundef %0, ptr noundef writeonly captures(none) %1, ptr noundef %2, ptr noundef %3, ptr noundef readonly captures(none) %4) local_unnamed_addr #0 {
  %6 = getelementptr inbounds nuw i8, ptr %4, i64 8
  %7 = load i64, ptr %6, align 8, !tbaa !4
  %8 = and i64 %7, -4096
  %9 = icmp ugt i64 %8, 8070450532247928832
  br i1 %9, label %sz_psz2ind.exit, label %10, !prof !9

10:                                               ; preds = %5
  %11 = icmp ne i64 %8, 0
  tail call void @llvm.assume(i1 %11)
  %12 = add nsw i64 %8, -1
  %13 = tail call range(i64 0, 65) i64 @llvm.ctlz.i64(i64 %12, i1 true)
  %14 = trunc nuw nsw i64 %13 to i32
  %15 = tail call i32 @llvm.usub.sat.i32(i32 50, i32 %14)
  %16 = icmp samesign ult i64 %8, 16385
  %17 = add nuw nsw i32 %15, 11
  %18 = zext nneg i32 %17 to i64
  %19 = select i1 %16, i64 12, i64 %18
  %20 = lshr i64 %12, %19
  %21 = trunc i64 %20 to i32
  %22 = and i32 %21, 3
  %23 = shl nuw nsw i32 %15, 2
  %24 = or disjoint i32 %23, 1
  %25 = add nuw nsw i32 %24, %22
  br label %sz_psz2ind.exit

sz_psz2ind.exit:                                  ; preds = %5, %10
  %.0.i = phi i32 [ %25, %10 ], [ 200, %5 ]
  %26 = load i64, ptr %4, align 8, !tbaa !10
  %27 = zext nneg i32 %.0.i to i64
  %28 = mul nuw nsw i64 %27, 24
  %reass.add = add nuw nsw i64 %28, 144
  %reass.mul = mul i64 %reass.add, %26
  %29 = tail call ptr @je_base_alloc(ptr noundef %0, ptr noundef %2, i64 noundef %reass.mul, i64 noundef 64) #9
  %30 = icmp eq ptr %29, null
  br i1 %30, label %.thread, label %31

31:                                               ; preds = %sz_psz2ind.exit
  %32 = getelementptr inbounds nuw i8, ptr %1, i64 104
  store ptr %29, ptr %32, align 8, !tbaa !11
  %33 = load i64, ptr %4, align 8, !tbaa !10
  %.not62.not = icmp eq i64 %33, 0
  br i1 %.not62.not, label %.critedge, label %.lr.ph.preheader

.lr.ph.preheader:                                 ; preds = %31
  %34 = getelementptr inbounds nuw %struct.sec_shard_s, ptr %29, i64 %33
  br label %.lr.ph

.lr.ph:                                           ; preds = %.lr.ph.preheader, %45
  %.05365 = phi i64 [ %48, %45 ], [ 0, %.lr.ph.preheader ]
  %.05464 = phi ptr [ %35, %45 ], [ %29, %.lr.ph.preheader ]
  %.05563 = phi ptr [ %44, %45 ], [ %34, %.lr.ph.preheader ]
  %35 = getelementptr inbounds nuw i8, ptr %.05464, i64 144
  %36 = tail call zeroext i1 @je_malloc_mutex_init(ptr noundef nonnull %.05464, ptr noundef nonnull @.str, i32 noundef 16, i32 noundef 0) #9
  br i1 %36, label %.thread, label %37

37:                                               ; preds = %.lr.ph
  %38 = getelementptr inbounds nuw i8, ptr %.05464, i64 112
  store i8 1, ptr %38, align 8, !tbaa !18
  %39 = getelementptr inbounds nuw i8, ptr %.05464, i64 120
  store ptr %.05563, ptr %39, align 8, !tbaa !23
  br label %40

40:                                               ; preds = %37, %40
  %indvars.iv = phi i64 [ 0, %37 ], [ %indvars.iv.next, %40 ]
  %.25760 = phi ptr [ %.05563, %37 ], [ %44, %40 ]
  %41 = load ptr, ptr %39, align 8, !tbaa !23
  %42 = getelementptr inbounds nuw %struct.sec_bin_s, ptr %41, i64 %indvars.iv
  store i8 0, ptr %42, align 8, !tbaa !24
  %43 = getelementptr inbounds nuw i8, ptr %42, i64 8
  tail call void @llvm.memset.p0.i64(ptr noundef nonnull align 8 dereferenceable(16) %43, i8 0, i64 16, i1 false)
  %44 = getelementptr inbounds nuw i8, ptr %.25760, i64 24
  %indvars.iv.next = add nuw nsw i64 %indvars.iv, 1
  %exitcond.not = icmp eq i64 %indvars.iv.next, %27
  br i1 %exitcond.not, label %45, label %40, !llvm.loop !29

45:                                               ; preds = %40
  %46 = getelementptr inbounds nuw i8, ptr %.05464, i64 128
  store i64 0, ptr %46, align 8, !tbaa !31
  %47 = getelementptr inbounds nuw i8, ptr %.05464, i64 136
  store i32 0, ptr %47, align 8, !tbaa !32
  %48 = add nuw i64 %.05365, 1
  %49 = load i64, ptr %4, align 8, !tbaa !10
  %.not = icmp ult i64 %48, %49
  br i1 %.not, label %.lr.ph, label %.critedge, !llvm.loop !33

.critedge:                                        ; preds = %45, %31
  %50 = getelementptr inbounds nuw i8, ptr %1, i64 56
  store ptr %3, ptr %50, align 8, !tbaa !34
  %51 = getelementptr inbounds nuw i8, ptr %1, i64 64
  tail call void @llvm.memcpy.p0.p0.i64(ptr noundef nonnull align 8 dereferenceable(40) %51, ptr noundef nonnull align 8 dereferenceable(40) %4, i64 40, i1 false), !tbaa.struct !35
  %52 = getelementptr inbounds nuw i8, ptr %1, i64 112
  store i32 %.0.i, ptr %52, align 8, !tbaa !37
  store ptr @sec_alloc, ptr %1, align 8, !tbaa !38
  %53 = getelementptr inbounds nuw i8, ptr %1, i64 8
  store ptr @je_pai_alloc_batch_default, ptr %53, align 8, !tbaa !39
  %54 = getelementptr inbounds nuw i8, ptr %1, i64 16
  store ptr @sec_expand, ptr %54, align 8, !tbaa !40
  %55 = getelementptr inbounds nuw i8, ptr %1, i64 24
  store ptr @sec_shrink, ptr %55, align 8, !tbaa !41
  %56 = getelementptr inbounds nuw i8, ptr %1, i64 32
  store ptr @sec_dalloc, ptr %56, align 8, !tbaa !42
  %57 = getelementptr inbounds nuw i8, ptr %1, i64 40
  store ptr @je_pai_dalloc_batch_default, ptr %57, align 8, !tbaa !43
  br label %.thread

.thread:                                          ; preds = %.lr.ph, %.critedge, %sz_psz2ind.exit
  %.050 = phi i1 [ true, %sz_psz2ind.exit ], [ false, %.critedge ], [ true, %.lr.ph ]
  ret i1 %.050
}